target datalayout = "e-m:e-p270:32:32-p271:32:32-p272:64:64-i64:64-i128:128-f80:128-n8:16:32:64-S128"
target triple = "x86_64-pc-linux-gnu"

%struct.ldbState = type { ptr, i32, i32, ptr, ptr, ptr, [64 x i32], i32, i32, i32, ptr, i32, i32, ptr, i64, i32 }
%struct.sdshdr8 = type { i8, i8, i8, [0 x i8] }
%struct.sdshdr16 = type <{ i16, i16, i8, [0 x i8] }>
%struct.sdshdr32 = type <{ i32, i32, i8, [0 x i8] }>
%struct.sdshdr64 = type <{ i64, i64, i8, [0 x i8] }>

@ldb = dso_local global %struct.ldbState zeroinitializer, align 8
@.str.121 = private unnamed_addr constant [2 x i8] c" \00", align 1
@.str.122 = private unnamed_addr constant [8 x i8] c"return \00", align 1
@.str.123 = private unnamed_addr constant [10 x i8] c"@ldb_eval\00", align 1
@.str.124 = private unnamed_addr constant [11 x i8] c"<error> %s\00", align 1
@.str.125 = private unnamed_addr constant [10 x i8] c"<retval> \00", align 1

; Function Attrs: nounwind uwtable
define dso_local ptr @ldbCatStackValue(ptr noundef %0, ptr noundef %1, i32 noundef %2) #0 {
  %4 = alloca ptr, align 8
  %5 = alloca ptr, align 8
  %6 = alloca i32, align 4
  store ptr %0, ptr %4, align 8, !tbaa !16
  store ptr %1, ptr %5, align 8, !tbaa !24
  store i32 %2, ptr %6, align 4, !tbaa !19
  %7 = load ptr, ptr %4, align 8, !tbaa !16
  %8 = load ptr, ptr %5, align 8, !tbaa !24
  %9 = load i32, ptr %6, align 4, !tbaa !19
  %10 = call ptr @ldbCatStackValueRec(ptr noundef %7, ptr noundef %8, i32 noundef %9, i32 noundef 0)
  ret ptr %10
}

; Function Attrs: nounwind uwtable
define dso_local void @ldbLogStackValue(ptr noundef %0, ptr noundef %1) #0 {
  %3 = alloca ptr, align 8
  %4 = alloca ptr, align 8
  %5 = alloca ptr, align 8
  store ptr %0, ptr %3, align 8, !tbaa !24
  store ptr %1, ptr %4, align 8, !tbaa !16
  call void @llvm.lifetime.start.p0(i64 8, ptr %5) #14
  %6 = load ptr, ptr %4, align 8, !tbaa !16
  %7 = call ptr @sdsnew(ptr noundef %6)
  store ptr %7, ptr %5, align 8, !tbaa !16
  %8 = load ptr, ptr %5, align 8, !tbaa !16
  %9 = load ptr, ptr %3, align 8, !tbaa !24
  %10 = call ptr @ldbCatStackValue(ptr noundef %8, ptr noundef %9, i32 noundef -1)
  store ptr %10, ptr %5, align 8, !tbaa !16
  %11 = load ptr, ptr %5, align 8, !tbaa !16
  call void @ldbLogWithMaxLen(ptr noundef %11)
  call void @llvm.lifetime.end.p0(i64 8, ptr %5) #14
  ret void
}

; Function Attrs: nounwind uwtable
define dso_local void @ldbLog(ptr noundef %0) #0 {
  %2 = alloca ptr, align 8
  store ptr %0, ptr %2, align 8, !tbaa !16
  %3 = load ptr, ptr getelementptr inbounds nuw (%struct.ldbState, ptr @ldb, i32 0, i32 3), align 8, !tbaa !34
  %4 = load ptr, ptr %2, align 8, !tbaa !16
  %5 = call ptr @listAddNodeTail(ptr noundef %3, ptr noundef %4)
  ret void
}

; Function Attrs: inlinehint nounwind uwtable
define internal i64 @sdslen(ptr noundef %0) #6 {
  %2 = alloca i64, align 8
  %3 = alloca ptr, align 8
  %4 = alloca i8, align 1
  %5 = alloca i32, align 4
  store ptr %0, ptr %3, align 8, !tbaa !16
  call void @llvm.lifetime.start.p0(i64 1, ptr %4) #14
  %6 = load ptr, ptr %3, align 8, !tbaa !16
  %7 = getelementptr inbounds i8, ptr %6, i64 -1
  %8 = load i8, ptr %7, align 1, !tbaa !21
  store i8 %8, ptr %4, align 1, !tbaa !21
  %9 = load i8, ptr %4, align 1, !tbaa !21
  %10 = zext i8 %9 to i32
  %11 = and i32 %10, 7
  switch i32 %11, label %40 [
    i32 0, label %12
    i32 1, label %17
    i32 2, label %23
    i32 3, label %29
    i32 4, label %35
  ]

12:                                               ; preds = %1
  %13 = load i8, ptr %4, align 1, !tbaa !21
  %14 = zext i8 %13 to i32
  %15 = ashr i32 %14, 3
  %16 = sext i32 %15 to i64
  store i64 %16, ptr %2, align 8
  store i32 1, ptr %5, align 4
  br label %41

17:                                               ; preds = %1
  %18 = load ptr, ptr %3, align 8, !tbaa !16
  %19 = getelementptr inbounds i8, ptr %18, i64 -3
  %20 = getelementptr inbounds nuw %struct.sdshdr8, ptr %19, i32 0, i32 0
  %21 = load i8, ptr %20, align 1, !tbaa !21
  %22 = zext i8 %21 to i64
  store i64 %22, ptr %2, align 8
  store i32 1, ptr %5, align 4
  br label %41

23:                                               ; preds = %1
  %24 = load ptr, ptr %3, align 8, !tbaa !16
  %25 = getelementptr inbounds i8, ptr %24, i64 -5
  %26 = getelementptr inbounds nuw %struct.sdshdr16, ptr %25, i32 0, i32 0
  %27 = load i16, ptr %26, align 1, !tbaa !109
  %28 = zext i16 %27 to i64
  store i64 %28, ptr %2, align 8
  store i32 1, ptr %5, align 4
  br label %41

29:                                               ; preds = %1
  %30 = load ptr, ptr %3, align 8, !tbaa !16
  %31 = getelementptr inbounds i8, ptr %30, i64 -9
  %32 = getelementptr inbounds nuw %struct.sdshdr32, ptr %31, i32 0, i32 0
  %33 = load i32, ptr %32, align 1, !tbaa !19
  %34 = zext i32 %33 to i64
  store i64 %34, ptr %2, align 8
  store i32 1, ptr %5, align 4
  br label %41

35:                                               ; preds = %1
  %36 = load ptr, ptr %3, align 8, !tbaa !16
  %37 = getelementptr inbounds i8, ptr %36, i64 -17
  %38 = getelementptr inbounds nuw %struct.sdshdr64, ptr %37, i32 0, i32 0
  %39 = load i64, ptr %38, align 1, !tbaa !18
  store i64 %39, ptr %2, align 8
  store i32 1, ptr %5, align 4
  br label %41

40:                                               ; preds = %1
  store i64 0, ptr %2, align 8
  store i32 1, ptr %5, align 4
  br label %41

41:                                               ; preds = %40, %35, %29, %23, %17, %12
  call void @llvm.lifetime.end.p0(i64 1, ptr %4) #14
  %42 = load i64, ptr %2, align 8
  ret i64 %42
}

; Function Attrs: nounwind uwtable
define dso_local void @ldbEval(ptr noundef %0, ptr noundef %1, i32 noundef %2) #0 {
  %4 = alloca ptr, align 8
  %5 = alloca ptr, align 8
  %6 = alloca i32, align 4
  %7 = alloca ptr, align 8
  %8 = alloca ptr, align 8
  %9 = alloca i32, align 4
  store ptr %0, ptr %4, align 8, !tbaa !24
  store ptr %1, ptr %5, align 8, !tbaa !100
  store i32 %2, ptr %6, align 4, !tbaa !19
  call void @llvm.lifetime.start.p0(i64 8, ptr %7) #14
  %10 = load ptr, ptr %5, align 8, !tbaa !100
  %11 = getelementptr inbounds ptr, ptr %10, i64 1
  %12 = load i32, ptr %6, align 4, !tbaa !19
  %13 = sub nsw i32 %12, 1
  %14 = call ptr @sdsjoinsds(ptr noundef %11, i32 noundef %13, ptr noundef @.str.121, i64 noundef 1)
  store ptr %14, ptr %7, align 8, !tbaa !16
  call void @llvm.lifetime.start.p0(i64 8, ptr %8) #14
  %15 = call ptr @sdsnew(ptr noundef @.str.122)
  %16 = load ptr, ptr %7, align 8, !tbaa !16
  %17 = call ptr @sdscatsds(ptr noundef %15, ptr noundef %16)
  store ptr %17, ptr %8, align 8, !tbaa !16
  %18 = load ptr, ptr %4, align 8, !tbaa !24
  %19 = load ptr, ptr %8, align 8, !tbaa !16
  %20 = load ptr, ptr %8, align 8, !tbaa !16
  %21 = call i64 @sdslen(ptr noundef %20)
  %22 = call i32 @luaL_loadbuffer(ptr noundef %18, ptr noundef %19, i64 noundef %21, ptr noundef @.str.123)
  %23 = icmp ne i32 %22, 0
  br i1 %23, label %24, label %41

24:                                               ; preds = %3
  %25 = load ptr, ptr %4, align 8, !tbaa !24
  call void @lua_settop(ptr noundef %25, i32 noundef -2)
  %26 = load ptr, ptr %4, align 8, !tbaa !24
  %27 = load ptr, ptr %7, align 8, !tbaa !16
  %28 = load ptr, ptr %7, align 8, !tbaa !16
  %29 = call i64 @sdslen(ptr noundef %28)
  %30 = call i32 @luaL_loadbuffer(ptr noundef %26, ptr noundef %27, i64 noundef %29, ptr noundef @.str.123)
  %31 = icmp ne i32 %30, 0
  br i1 %31, label %32, label %40

32:                                               ; preds = %24
  %33 = call ptr @sdsempty()
  %34 = load ptr, ptr %4, align 8, !tbaa !24
  %35 = call ptr @lua_tolstring(ptr noundef %34, i32 noundef -1, ptr noundef null)
  %36 = call ptr (ptr, ptr, ...) @sdscatfmt(ptr noundef %33, ptr noundef @.str.124, ptr noundef %35)
  call void @ldbLog(ptr noundef %36)
  %37 = load ptr, ptr %4, align 8, !tbaa !24
  call void @lua_settop(ptr noundef %37, i32 noundef -2)
  %38 = load ptr, ptr %7, align 8, !tbaa !16
  call void @sdsfree(ptr noundef %38)
  %39 = load ptr, ptr %8, align 8, !tbaa !16
  call void @sdsfree(ptr noundef %39)
  store i32 1, ptr %9, align 4
  br label %56

40:                                               ; preds = %24
  br label %41

41:                                               ; preds = %40, %3
  %42 = load ptr, ptr %7, align 8, !tbaa !16
  call void @sdsfree(ptr noundef %42)
  %43 = load ptr, ptr %8, align 8, !tbaa !16
  call void @sdsfree(ptr noundef %43)
  %44 = load ptr, ptr %4, align 8, !tbaa !24
  %45 = call i32 @lua_pcall(ptr noundef %44, i32 noundef 0, i32 noundef 1, i32 noundef 0)
  %46 = icmp ne i32 %45, 0
  br i1 %46, label %47, label %53

47:                                               ; preds = %41
  %48 = call ptr @sdsempty()
  %49 = load ptr, ptr %4, align 8, !tbaa !24
  %50 = call ptr @lua_tolstring(ptr noundef %49, i32 noundef -1, ptr noundef null)
  %51 = call ptr (ptr, ptr, ...) @sdscatfmt(ptr noundef %48, ptr noundef @.str.124, ptr noundef %50)
  call void @ldbLog(ptr noundef %51)
  %52 = load ptr, ptr %4, align 8, !tbaa !24
  call void @lua_settop(ptr noundef %52, i32 noundef -2)
  store i32 1, ptr %9, align 4
  br label %56

53:                                               ; preds = %41
  %54 = load ptr, ptr %4, align 8, !tbaa !24
  call void @ldbLogStackValue(ptr noundef %54, ptr noundef @.str.125)
  %55 = load ptr, ptr %4, align 8, !tbaa !24
  call void @lua_settop(ptr noundef %55, i32 noundef -2)
  store i32 0, ptr %9, align 4
  br label %56

56:                                               ; preds = %53, %47, %32
  call void @llvm.lifetime.end.p0(i64 8, ptr %8) #14
  call void @llvm.lifetime.end.p0(i64 8, ptr %7) #14
  %57 = load i32, ptr %9, align 4
  switch i32 %57, label %59 [
    i32 0, label %58
    i32 1, label %58
  ]

58:                                               ; preds = %56, %56
  ret void

59:                                               ; preds = %56
  unreachable
}