; Function Attrs: nounwind uwtable
define dso_local void @ldbEval(ptr noundef %0, ptr noundef %1, i32 noundef %2) local_unnamed_addr #0 {
  %4 = getelementptr inbounds nuw i8, ptr %1, i64 8
  %5 = add nsw i32 %2, -1
  %6 = tail call ptr @sdsjoinsds(ptr noundef nonnull %4, i32 noundef %5, ptr noundef nonnull @.str.121, i64 noundef 1) #19
  %7 = tail call ptr @sdsnew(ptr noundef nonnull @.str.122) #19
  %8 = tail call ptr @sdscatsds(ptr noundef %7, ptr noundef %6) #19
  %9 = getelementptr inbounds i8, ptr %8, i64 -1
  %10 = load i8, ptr %9, align 1, !tbaa !13
  %11 = zext i8 %10 to i32
  %12 = and i32 %11, 7
  switch i32 %12, label %sdslen.exit [
    i32 0, label %13
    i32 1, label %16
    i32 2, label %20
    i32 3, label %24
    i32 4, label %28
  ]

13:                                               ; preds = %3
  %14 = lshr i32 %11, 3
  %15 = zext nneg i32 %14 to i64
  br label %sdslen.exit

16:                                               ; preds = %3
  %17 = getelementptr inbounds i8, ptr %8, i64 -3
  %18 = load i8, ptr %17, align 1, !tbaa !13
  %19 = zext i8 %18 to i64
  br label %sdslen.exit

20:                                               ; preds = %3
  %21 = getelementptr inbounds i8, ptr %8, i64 -5
  %22 = load i16, ptr %21, align 1, !tbaa !94
  %23 = zext i16 %22 to i64
  br label %sdslen.exit

24:                                               ; preds = %3
  %25 = getelementptr inbounds i8, ptr %8, i64 -9
  %26 = load i32, ptr %25, align 1, !tbaa !91
  %27 = zext i32 %26 to i64
  br label %sdslen.exit

28:                                               ; preds = %3
  %29 = getelementptr inbounds i8, ptr %8, i64 -17
  %30 = load i64, ptr %29, align 1, !tbaa !95
  br label %sdslen.exit

sdslen.exit:                                      ; preds = %3, %13, %16, %20, %24, %28
  %.0.i = phi i64 [ %30, %28 ], [ %27, %24 ], [ %23, %20 ], [ %19, %16 ], [ %15, %13 ], [ 0, %3 ]
  %31 = tail call i32 @luaL_loadbuffer(ptr noundef %0, ptr noundef nonnull %8, i64 noundef %.0.i, ptr noundef nonnull @.str.123) #19
  %.not = icmp eq i32 %31, 0
  br i1 %.not, label %62, label %32

32:                                               ; preds = %sdslen.exit
  tail call void @lua_settop(ptr noundef %0, i32 noundef -2) #19
  %33 = getelementptr inbounds i8, ptr %6, i64 -1
  %34 = load i8, ptr %33, align 1, !tbaa !13
  %35 = zext i8 %34 to i32
  %36 = and i32 %35, 7
  switch i32 %36, label %sdslen.exit23 [
    i32 0, label %37
    i32 1, label %40
    i32 2, label %44
    i32 3, label %48
    i32 4, label %52
  ]

37:                                               ; preds = %32
  %38 = lshr i32 %35, 3
  %39 = zext nneg i32 %38 to i64
  br label %sdslen.exit23

40:                                               ; preds = %32
  %41 = getelementptr inbounds i8, ptr %6, i64 -3
  %42 = load i8, ptr %41, align 1, !tbaa !13
  %43 = zext i8 %42 to i64
  br label %sdslen.exit23

44:                                               ; preds = %32
  %45 = getelementptr inbounds i8, ptr %6, i64 -5
  %46 = load i16, ptr %45, align 1, !tbaa !94
  %47 = zext i16 %46 to i64
  br label %sdslen.exit23

48:                                               ; preds = %32
  %49 = getelementptr inbounds i8, ptr %6, i64 -9
  %50 = load i32, ptr %49, align 1, !tbaa !91
  %51 = zext i32 %50 to i64
  br label %sdslen.exit23

52:                                               ; preds = %32
  %53 = getelementptr inbounds i8, ptr %6, i64 -17
  %54 = load i64, ptr %53, align 1, !tbaa !95
  br label %sdslen.exit23

sdslen.exit23:                                    ; preds = %32, %37, %40, %44, %48, %52
  %.0.i22 = phi i64 [ %54, %52 ], [ %51, %48 ], [ %47, %44 ], [ %43, %40 ], [ %39, %37 ], [ 0, %32 ]
  %55 = tail call i32 @luaL_loadbuffer(ptr noundef %0, ptr noundef nonnull %6, i64 noundef %.0.i22, ptr noundef nonnull @.str.123) #19
  %.not20 = icmp eq i32 %55, 0
  br i1 %.not20, label %62, label %56

56:                                               ; preds = %sdslen.exit23
  %57 = tail call ptr @sdsempty() #19
  %58 = tail call ptr @lua_tolstring(ptr noundef %0, i32 noundef -1, ptr noundef null) #19
  %59 = tail call ptr (ptr, ptr, ...) @sdscatfmt(ptr noundef %57, ptr noundef nonnull @.str.124, ptr noundef %58) #19
  %60 = load ptr, ptr getelementptr inbounds nuw (i8, ptr @ldb, i64 16), align 8, !tbaa !26
  %61 = tail call ptr @listAddNodeTail(ptr noundef %60, ptr noundef %59) #19
  tail call void @lua_settop(ptr noundef %0, i32 noundef -2) #19
  tail call void @sdsfree(ptr noundef nonnull %6) #19
  tail call void @sdsfree(ptr noundef nonnull %8) #19
  br label %73

62:                                               ; preds = %sdslen.exit23, %sdslen.exit
  tail call void @sdsfree(ptr noundef %6) #19
  tail call void @sdsfree(ptr noundef nonnull %8) #19
  %63 = tail call i32 @lua_pcall(ptr noundef %0, i32 noundef 0, i32 noundef 1, i32 noundef 0) #19
  %.not21 = icmp eq i32 %63, 0
  br i1 %.not21, label %70, label %64

64:                                               ; preds = %62
  %65 = tail call ptr @sdsempty() #19
  %66 = tail call ptr @lua_tolstring(ptr noundef %0, i32 noundef -1, ptr noundef null) #19
  %67 = tail call ptr (ptr, ptr, ...) @sdscatfmt(ptr noundef %65, ptr noundef nonnull @.str.124, ptr noundef %66) #19
  %68 = load ptr, ptr getelementptr inbounds nuw (i8, ptr @ldb, i64 16), align 8, !tbaa !26
  %69 = tail call ptr @listAddNodeTail(ptr noundef %68, ptr noundef %67) #19
  tail call void @lua_settop(ptr noundef %0, i32 noundef -2) #19
  br label %73

70:                                               ; preds = %62
  %71 = tail call ptr @sdsnew(ptr noundef nonnull @.str.125) #19
  %72 = tail call ptr @ldbCatStackValueRec(ptr noundef %71, ptr noundef %0, i32 noundef -1, i32 noundef 0)
  tail call void @ldbLogWithMaxLen(ptr noundef %72)
  tail call void @lua_settop(ptr noundef %0, i32 noundef -2) #19
  br label %73

73:                                               ; preds = %70, %64, %56
  ret void
}